target datalayout = "e-m:e-p270:32:32-p271:32:32-p272:64:64-i64:64-i128:128-f80:128-n8:16:32:64-S128"
target triple = "x86_64-pc-linux-gnu"

; Function Attrs: nounwind uwtable
define dso_local ptr @str_remove_suffix(ptr noundef %0, ptr noundef %1) #0 {
  %3 = alloca ptr, align 8
  %4 = alloca ptr, align 8
  %5 = alloca ptr, align 8
  %6 = alloca i64, align 8
  %7 = alloca i64, align 8
  %8 = alloca i64, align 8
  %9 = alloca ptr, align 8
  store ptr %0, ptr %4, align 8
  store ptr %1, ptr %5, align 8
  %10 = load ptr, ptr %4, align 8
  %11 = call i64 @strlen(ptr noundef %10) #7
  store i64 %11, ptr %6, align 8
  %12 = load ptr, ptr %5, align 8
  %13 = call i64 @strlen(ptr noundef %12) #7
  store i64 %13, ptr %7, align 8
  %14 = load i64, ptr %6, align 8
  %15 = load i64, ptr %7, align 8
  %16 = icmp ule i64 %14, %15
  br i1 %16, label %17, label %18

17:                                               ; preds = %2
  store ptr null, ptr %3, align 8
  br label %44

18:                                               ; preds = %2
  %19 = load ptr, ptr %4, align 8
  %20 = load i64, ptr %6, align 8
  %21 = getelementptr inbounds i8, ptr %19, i64 %20
  %22 = load i64, ptr %7, align 8
  %23 = sub i64 0, %22
  %24 = getelementptr inbounds i8, ptr %21, i64 %23
  %25 = load ptr, ptr %5, align 8
  %26 = load i64, ptr %7, align 8
  %27 = call i32 @memcmp(ptr noundef %24, ptr noundef %25, i64 noundef %26) #7
  %28 = icmp ne i32 %27, 0
  br i1 %28, label %29, label %30

29:                                               ; preds = %18
  store ptr null, ptr %3, align 8
  br label %44

30:                                               ; preds = %18
  %31 = load i64, ptr %6, align 8
  %32 = load i64, ptr %7, align 8
  %33 = sub i64 %31, %32
  store i64 %33, ptr %8, align 8
  %34 = load i64, ptr %8, align 8
  %35 = add i64 %34, 1
  %36 = call ptr @calloc_string(i64 noundef %35)
  store ptr %36, ptr %9, align 8
  %37 = load ptr, ptr %9, align 8
  %38 = load ptr, ptr %4, align 8
  %39 = load i64, ptr %8, align 8
  call void @llvm.memcpy.p0.p0.i64(ptr align 1 %37, ptr align 1 %38, i64 %39, i1 false)
  %40 = load ptr, ptr %9, align 8
  %41 = load i64, ptr %8, align 8
  %42 = getelementptr inbounds i8, ptr %40, i64 %41
  store i8 0, ptr %42, align 1
  %43 = load ptr, ptr %9, align 8
  store ptr %43, ptr %3, align 8
  br label %44

44:                                               ; preds = %30, %29, %17
  %45 = load ptr, ptr %3, align 8
  ret ptr %45
}