; Function Attrs: nounwind uwtable
define dso_local ptr @str_remove_suffix(ptr nocapture noundef readonly %0, ptr nocapture noundef readonly %1) local_unnamed_addr #7 {
  %3 = tail call i64 @strlen(ptr noundef nonnull dereferenceable(1) %0) #20
  %4 = tail call i64 @strlen(ptr noundef nonnull dereferenceable(1) %1) #20
  %.not = icmp ugt i64 %3, %4
  br i1 %.not, label %5, label %14

5:                                                ; preds = %2
  %6 = getelementptr inbounds i8, ptr %0, i64 %3
  %7 = sub i64 0, %4
  %8 = getelementptr inbounds i8, ptr %6, i64 %7
  %bcmp = tail call i32 @bcmp(ptr nonnull %8, ptr %1, i64 %4)
  %.not20 = icmp eq i32 %bcmp, 0
  br i1 %.not20, label %9, label %14

9:                                                ; preds = %5
  %10 = sub i64 %3, %4
  %11 = add i64 %10, 1
  %12 = tail call ptr @calloc_string(i64 noundef %11) #21
  tail call void @llvm.memcpy.p0.p0.i64(ptr align 1 %12, ptr align 1 %0, i64 %10, i1 false)
  %13 = getelementptr inbounds i8, ptr %12, i64 %10
  store i8 0, ptr %13, align 1
  br label %14

14:                                               ; preds = %5, %2, %9
  %.0 = phi ptr [ %12, %9 ], [ null, %2 ], [ null, %5 ]
  ret ptr %.0
}